target datalayout = "e-m:e-p270:32:32-p271:32:32-p272:64:64-i64:64-i128:128-f80:128-n8:16:32:64-S128"
target triple = "x86_64-pc-linux-gnu"

%struct.Vec_Int_t_ = type { i32, i32, ptr }
%struct.Vec_Ptr_t_ = type { i32, i32, ptr }
%struct.Abc_Ntk_t_ = type { i32, i32, ptr, ptr, ptr, ptr, ptr, ptr, ptr, ptr, ptr, ptr, ptr, [11 x i32], i32, i32, i32, i32, ptr, i32, ptr, ptr, i32, i32, i32, double, i32, %struct.Vec_Int_t_, ptr, ptr, ptr, ptr, ptr, float, i32, ptr, ptr, ptr, ptr, ptr, ptr, ptr, ptr, ptr, ptr, ptr, ptr, ptr, ptr, ptr, ptr, ptr, ptr, ptr, ptr, ptr }
%struct.Aig_Man_t_ = type { ptr, ptr, ptr, ptr, ptr, ptr, ptr, %struct.Aig_Obj_t_, i32, i32, i32, i32, i32, i32, [7 x i32], i32, ptr, i32, ptr, i32, ptr, i32, i32, i32, ptr, i32, i32, i32, i32, i32, ptr, ptr, i32, ptr, ptr, i32, ptr, ptr, i32, i32, i32, ptr, ptr, ptr, ptr, ptr, ptr, ptr, ptr, ptr, ptr, ptr, ptr, ptr, ptr, i32, ptr, ptr, ptr, ptr, i32, i64, i64, i64, ptr, ptr }
%struct.Aig_Obj_t_ = type { %union.anon, ptr, ptr, i64, i32, i32, %union.anon.0 }
%union.anon = type { ptr }
%union.anon.0 = type { ptr }

@.str.105 = private unnamed_addr constant [39 x i8] c"Selected object %d as a window pivot.\0A\00", align 1
@.str.106 = private unnamed_addr constant [22 x i8] c"The ID is too large.\0A\00", align 1
@.str.107 = private unnamed_addr constant [35 x i8] c"Object with ID %d does not exist.\0A\00", align 1
@.str.108 = private unnamed_addr constant [48 x i8] c"Object with ID %d is not a node or reg output.\0A\00", align 1

; Function Attrs: nounwind uwtable
define internal i32 @Saig_ManPiNum(ptr noundef %0) #0 {
  %2 = alloca ptr, align 8
  store ptr %0, ptr %2, align 8
  %3 = load ptr, ptr %2, align 8
  %4 = getelementptr inbounds %struct.Aig_Man_t_, ptr %3, i32 0, i32 9
  %5 = load i32, ptr %4, align 4
  ret i32 %5
}

; Function Attrs: nounwind uwtable
define internal i32 @Aig_ObjCioId(ptr noundef %0) #0 {
  %2 = alloca ptr, align 8
  store ptr %0, ptr %2, align 8
  %3 = load ptr, ptr %2, align 8
  %4 = getelementptr inbounds %struct.Aig_Obj_t_, ptr %3, i32 0, i32 0
  %5 = load i32, ptr %4, align 8
  ret i32 %5
}

; Function Attrs: nounwind uwtable
define internal i32 @Aig_ObjIsCi(ptr noundef %0) #0 {
  %2 = alloca ptr, align 8
  store ptr %0, ptr %2, align 8
  %3 = load ptr, ptr %2, align 8
  %4 = getelementptr inbounds %struct.Aig_Obj_t_, ptr %3, i32 0, i32 3
  %5 = load i64, ptr %4, align 8
  %6 = and i64 %5, 7
  %7 = trunc i64 %6 to i32
  %8 = icmp eq i32 %7, 2
  %9 = zext i1 %8 to i32
  ret i32 %9
}

; Function Attrs: nounwind uwtable
define internal ptr @Vec_PtrEntry(ptr noundef %0, i32 noundef %1) #0 {
  %3 = alloca ptr, align 8
  %4 = alloca i32, align 4
  store ptr %0, ptr %3, align 8
  store i32 %1, ptr %4, align 4
  %5 = load ptr, ptr %3, align 8
  %6 = getelementptr inbounds %struct.Vec_Ptr_t_, ptr %5, i32 0, i32 2
  %7 = load ptr, ptr %6, align 8
  %8 = load i32, ptr %4, align 4
  %9 = sext i32 %8 to i64
  %10 = getelementptr inbounds ptr, ptr %7, i64 %9
  %11 = load ptr, ptr %10, align 8
  ret ptr %11
}

; Function Attrs: nounwind uwtable
define internal i32 @Vec_PtrSize(ptr noundef %0) #0 {
  %2 = alloca ptr, align 8
  store ptr %0, ptr %2, align 8
  %3 = load ptr, ptr %2, align 8
  %4 = getelementptr inbounds %struct.Vec_Ptr_t_, ptr %3, i32 0, i32 1
  %5 = load i32, ptr %4, align 4
  ret i32 %5
}

; Function Attrs: nounwind uwtable
define internal i32 @Aig_ObjIsNode(ptr noundef %0) #0 {
  %2 = alloca ptr, align 8
  store ptr %0, ptr %2, align 8
  %3 = load ptr, ptr %2, align 8
  %4 = getelementptr inbounds %struct.Aig_Obj_t_, ptr %3, i32 0, i32 3
  %5 = load i64, ptr %4, align 8
  %6 = and i64 %5, 7
  %7 = trunc i64 %6 to i32
  %8 = icmp eq i32 %7, 5
  br i1 %8, label %16, label %9

9:                                                ; preds = %1
  %10 = load ptr, ptr %2, align 8
  %11 = getelementptr inbounds %struct.Aig_Obj_t_, ptr %10, i32 0, i32 3
  %12 = load i64, ptr %11, align 8
  %13 = and i64 %12, 7
  %14 = trunc i64 %13 to i32
  %15 = icmp eq i32 %14, 6
  br label %16

16:                                               ; preds = %9, %1
  %17 = phi i1 [ true, %1 ], [ %15, %9 ]
  %18 = zext i1 %17 to i32
  ret i32 %18
}

; Function Attrs: nounwind uwtable
define internal i32 @Saig_ObjIsLo(ptr noundef %0, ptr noundef %1) #0 {
  %3 = alloca ptr, align 8
  %4 = alloca ptr, align 8
  store ptr %0, ptr %3, align 8
  store ptr %1, ptr %4, align 8
  %5 = load ptr, ptr %4, align 8
  %6 = call i32 @Aig_ObjIsCi(ptr noundef %5)
  %7 = icmp ne i32 %6, 0
  br i1 %7, label %8, label %14

8:                                                ; preds = %2
  %9 = load ptr, ptr %4, align 8
  %10 = call i32 @Aig_ObjCioId(ptr noundef %9)
  %11 = load ptr, ptr %3, align 8
  %12 = call i32 @Saig_ManPiNum(ptr noundef %11)
  %13 = icmp sge i32 %10, %12
  br label %14

14:                                               ; preds = %8, %2
  %15 = phi i1 [ false, %2 ], [ %13, %8 ]
  %16 = zext i1 %15 to i32
  ret i32 %16
}

; Function Attrs: nounwind uwtable
define internal ptr @Aig_ManObj(ptr noundef %0, i32 noundef %1) #0 {
  %3 = alloca ptr, align 8
  %4 = alloca i32, align 4
  store ptr %0, ptr %3, align 8
  store i32 %1, ptr %4, align 4
  %5 = load ptr, ptr %3, align 8
  %6 = getelementptr inbounds %struct.Aig_Man_t_, ptr %5, i32 0, i32 4
  %7 = load ptr, ptr %6, align 8
  %8 = icmp ne ptr %7, null
  br i1 %8, label %9, label %15

9:                                                ; preds = %2
  %10 = load ptr, ptr %3, align 8
  %11 = getelementptr inbounds %struct.Aig_Man_t_, ptr %10, i32 0, i32 4
  %12 = load ptr, ptr %11, align 8
  %13 = load i32, ptr %4, align 4
  %14 = call ptr @Vec_PtrEntry(ptr noundef %12, i32 noundef %13)
  br label %16

15:                                               ; preds = %2
  br label %16

16:                                               ; preds = %15, %9
  %17 = phi ptr [ %14, %9 ], [ null, %15 ]
  ret ptr %17
}

; Function Attrs: nounwind uwtable
define internal i32 @Aig_ManObjNumMax(ptr noundef %0) #0 {
  %2 = alloca ptr, align 8
  store ptr %0, ptr %2, align 8
  %3 = load ptr, ptr %2, align 8
  %4 = getelementptr inbounds %struct.Aig_Man_t_, ptr %3, i32 0, i32 4
  %5 = load ptr, ptr %4, align 8
  %6 = call i32 @Vec_PtrSize(ptr noundef %5)
  ret i32 %6
}

; Function Attrs: nounwind uwtable
define ptr @Abc_NtkDarExtWin(ptr noundef %0, i32 noundef %1, i32 noundef %2, i32 noundef %3) #0 {
  %5 = alloca ptr, align 8
  %6 = alloca ptr, align 8
  %7 = alloca i32, align 4
  %8 = alloca i32, align 4
  %9 = alloca i32, align 4
  %10 = alloca ptr, align 8
  %11 = alloca ptr, align 8
  %12 = alloca ptr, align 8
  %13 = alloca ptr, align 8
  store ptr %0, ptr %6, align 8
  store i32 %1, ptr %7, align 4
  store i32 %2, ptr %8, align 4
  store i32 %3, ptr %9, align 4
  %14 = load ptr, ptr %6, align 8
  %15 = call ptr @Abc_NtkToDar(ptr noundef %14, i32 noundef 0, i32 noundef 1)
  store ptr %15, ptr %11, align 8
  %16 = load ptr, ptr %11, align 8
  %17 = icmp eq ptr %16, null
  br i1 %17, label %18, label %19

18:                                               ; preds = %4
  store ptr null, ptr %5, align 8
  br label %83

19:                                               ; preds = %4
  %20 = load i32, ptr %7, align 4
  %21 = icmp eq i32 %20, -1
  br i1 %21, label %22, label %28

22:                                               ; preds = %19
  %23 = load ptr, ptr %11, align 8
  %24 = call ptr @Saig_ManFindPivot(ptr noundef %23)
  store ptr %24, ptr %13, align 8
  %25 = load ptr, ptr %13, align 8
  %26 = getelementptr inbounds %struct.Aig_Obj_t_, ptr %25, i32 0, i32 5
  %27 = load i32, ptr %26, align 4
  call void (i32, ptr, ...) @Abc_Print(i32 noundef 1, ptr noundef @.str.105, i32 noundef %27)
  br label %57

28:                                               ; preds = %19
  %29 = load i32, ptr %7, align 4
  %30 = load ptr, ptr %11, align 8
  %31 = call i32 @Aig_ManObjNumMax(ptr noundef %30)
  %32 = icmp sge i32 %29, %31
  br i1 %32, label %33, label %35

33:                                               ; preds = %28
  %34 = load ptr, ptr %11, align 8
  call void @Aig_ManStop(ptr noundef %34)
  call void (i32, ptr, ...) @Abc_Print(i32 noundef 1, ptr noundef @.str.106)
  store ptr null, ptr %5, align 8
  br label %83

35:                                               ; preds = %28
  %36 = load ptr, ptr %11, align 8
  %37 = load i32, ptr %7, align 4
  %38 = call ptr @Aig_ManObj(ptr noundef %36, i32 noundef %37)
  store ptr %38, ptr %13, align 8
  %39 = load ptr, ptr %13, align 8
  %40 = icmp eq ptr %39, null
  br i1 %40, label %41, label %44

41:                                               ; preds = %35
  %42 = load ptr, ptr %11, align 8
  call void @Aig_ManStop(ptr noundef %42)
  %43 = load i32, ptr %7, align 4
  call void (i32, ptr, ...) @Abc_Print(i32 noundef 1, ptr noundef @.str.107, i32 noundef %43)
  store ptr null, ptr %5, align 8
  br label %83

44:                                               ; preds = %35
  %45 = load ptr, ptr %11, align 8
  %46 = load ptr, ptr %13, align 8
  %47 = call i32 @Saig_ObjIsLo(ptr noundef %45, ptr noundef %46)
  %48 = icmp ne i32 %47, 0
  br i1 %48, label %56, label %49

49:                                               ; preds = %44
  %50 = load ptr, ptr %13, align 8
  %51 = call i32 @Aig_ObjIsNode(ptr noundef %50)
  %52 = icmp ne i32 %51, 0
  br i1 %52, label %56, label %53

53:                                               ; preds = %49
  %54 = load ptr, ptr %11, align 8
  call void @Aig_ManStop(ptr noundef %54)
  %55 = load i32, ptr %7, align 4
  call void (i32, ptr, ...) @Abc_Print(i32 noundef 1, ptr noundef @.str.108, i32 noundef %55)
  store ptr null, ptr %5, align 8
  br label %83

56:                                               ; preds = %49, %44
  br label %57

57:                                               ; preds = %56, %22
  %58 = load ptr, ptr %11, align 8
  %59 = load ptr, ptr %13, align 8
  %60 = load i32, ptr %8, align 4
  %61 = call ptr @Saig_ManWindowExtract(ptr noundef %58, ptr noundef %59, i32 noundef %60)
  store ptr %61, ptr %12, align 8
  %62 = load ptr, ptr %11, align 8
  call void @Aig_ManStop(ptr noundef %62)
  %63 = load ptr, ptr %12, align 8
  %64 = icmp eq ptr %63, null
  br i1 %64, label %65, label %66

65:                                               ; preds = %57
  store ptr null, ptr %5, align 8
  br label %83

66:                                               ; preds = %57
  %67 = load ptr, ptr %12, align 8
  %68 = call ptr @Abc_NtkFromAigPhase(ptr noundef %67)
  store ptr %68, ptr %10, align 8
  %69 = load ptr, ptr %6, align 8
  %70 = getelementptr inbounds %struct.Abc_Ntk_t_, ptr %69, i32 0, i32 2
  %71 = load ptr, ptr %70, align 8
  %72 = call ptr @Extra_UtilStrsav(ptr noundef %71)
  %73 = load ptr, ptr %10, align 8
  %74 = getelementptr inbounds %struct.Abc_Ntk_t_, ptr %73, i32 0, i32 2
  store ptr %72, ptr %74, align 8
  %75 = load ptr, ptr %6, align 8
  %76 = getelementptr inbounds %struct.Abc_Ntk_t_, ptr %75, i32 0, i32 3
  %77 = load ptr, ptr %76, align 8
  %78 = call ptr @Extra_UtilStrsav(ptr noundef %77)
  %79 = load ptr, ptr %10, align 8
  %80 = getelementptr inbounds %struct.Abc_Ntk_t_, ptr %79, i32 0, i32 3
  store ptr %78, ptr %80, align 8
  %81 = load ptr, ptr %12, align 8
  call void @Aig_ManStop(ptr noundef %81)
  %82 = load ptr, ptr %10, align 8
  store ptr %82, ptr %5, align 8
  br label %83

83:                                               ; preds = %66, %65, %53, %41, %33, %18
  %84 = load ptr, ptr %5, align 8
  ret ptr %84
}