; Function Attrs: nounwind uwtable
define noundef ptr @Abc_NtkDarExtWin(ptr noundef %0, i32 noundef %1, i32 noundef %2, i32 noundef %3) local_unnamed_addr #1 {
  %5 = tail call ptr @Abc_NtkToDar(ptr noundef %0, i32 noundef 0, i32 noundef 1)
  %6 = icmp eq ptr %5, null
  br i1 %6, label %44, label %7

7:                                                ; preds = %4
  %8 = icmp eq i32 %1, -1
  br i1 %8, label %9, label %13

9:                                                ; preds = %7
  %10 = tail call ptr @Saig_ManFindPivot(ptr noundef nonnull %5) #19
  %11 = getelementptr inbounds nuw i8, ptr %10, i64 36
  %12 = load i32, ptr %11, align 4
  tail call void (i32, ptr, ...) @Abc_Print(i32 poison, ptr noundef nonnull @.str.105, i32 noundef %12)
  br label %31

13:                                               ; preds = %7
  %14 = getelementptr i8, ptr %5, i64 32
  %.val38 = load ptr, ptr %14, align 8
  %15 = getelementptr i8, ptr %.val38, i64 4
  %.val38.val = load i32, ptr %15, align 4
  %.not = icmp slt i32 %1, %.val38.val
  br i1 %.not, label %Aig_ManObj.exit, label %16

16:                                               ; preds = %13
  tail call void @Aig_ManStop(ptr noundef nonnull %5) #19
  tail call void (i32, ptr, ...) @Abc_Print(i32 poison, ptr noundef nonnull @.str.106)
  br label %44

Aig_ManObj.exit:                                  ; preds = %13
  %17 = getelementptr i8, ptr %.val38, i64 8
  %.val.i = load ptr, ptr %17, align 8
  %18 = sext i32 %1 to i64
  %19 = getelementptr inbounds ptr, ptr %.val.i, i64 %18
  %20 = load ptr, ptr %19, align 8
  %21 = icmp eq ptr %20, null
  br i1 %21, label %22, label %23

22:                                               ; preds = %Aig_ManObj.exit
  tail call void @Aig_ManStop(ptr noundef nonnull %5) #19
  tail call void (i32, ptr, ...) @Abc_Print(i32 poison, ptr noundef nonnull @.str.107, i32 noundef %1)
  br label %44

23:                                               ; preds = %Aig_ManObj.exit
  %24 = getelementptr i8, ptr %20, i64 24
  %.val4.i = load i64, ptr %24, align 8
  %25 = and i64 %.val4.i, 7
  %.not.i39 = icmp eq i64 %25, 2
  br i1 %.not.i39, label %Saig_ObjIsLo.exit, label %Saig_ObjIsLo.exit.thread

Saig_ObjIsLo.exit:                                ; preds = %23
  %.val3.i = load i32, ptr %20, align 8
  %26 = getelementptr i8, ptr %5, i64 108
  %.val.i40 = load i32, ptr %26, align 4
  %.not42 = icmp slt i32 %.val3.i, %.val.i40
  br i1 %.not42, label %Saig_ObjIsLo.exit.thread, label %31

Saig_ObjIsLo.exit.thread:                         ; preds = %23, %Saig_ObjIsLo.exit
  %27 = trunc i64 %.val4.i to i32
  %28 = and i32 %27, 7
  %29 = add nsw i32 %28, -7
  %narrow.i = icmp ult i32 %29, -2
  br i1 %narrow.i, label %30, label %31

30:                                               ; preds = %Saig_ObjIsLo.exit.thread
  tail call void @Aig_ManStop(ptr noundef nonnull %5) #19
  tail call void (i32, ptr, ...) @Abc_Print(i32 poison, ptr noundef nonnull @.str.108, i32 noundef %1)
  br label %44

31:                                               ; preds = %Saig_ObjIsLo.exit, %Saig_ObjIsLo.exit.thread, %9
  %.0 = phi ptr [ %10, %9 ], [ %20, %Saig_ObjIsLo.exit ], [ %20, %Saig_ObjIsLo.exit.thread ]
  %32 = tail call ptr @Saig_ManWindowExtract(ptr noundef nonnull %5, ptr noundef nonnull %.0, i32 noundef %2) #19
  tail call void @Aig_ManStop(ptr noundef nonnull %5) #19
  %33 = icmp eq ptr %32, null
  br i1 %33, label %44, label %34

34:                                               ; preds = %31
  %35 = tail call ptr @Abc_NtkFromAigPhase(ptr noundef nonnull %32)
  %36 = getelementptr inbounds nuw i8, ptr %0, i64 8
  %37 = load ptr, ptr %36, align 8
  %38 = tail call ptr @Extra_UtilStrsav(ptr noundef %37) #19
  %39 = getelementptr inbounds nuw i8, ptr %35, i64 8
  store ptr %38, ptr %39, align 8
  %40 = getelementptr inbounds nuw i8, ptr %0, i64 16
  %41 = load ptr, ptr %40, align 8
  %42 = tail call ptr @Extra_UtilStrsav(ptr noundef %41) #19
  %43 = getelementptr inbounds nuw i8, ptr %35, i64 16
  store ptr %42, ptr %43, align 8
  tail call void @Aig_ManStop(ptr noundef nonnull %32) #19
  br label %44

44:                                               ; preds = %31, %4, %34, %30, %22, %16
  %.030 = phi ptr [ %35, %34 ], [ null, %16 ], [ null, %22 ], [ null, %30 ], [ null, %4 ], [ null, %31 ]
  ret ptr %.030
}